target datalayout = "e-m:e-p270:32:32-p271:32:32-p272:64:64-i64:64-i128:128-f80:128-n8:16:32:64-S128"
target triple = "x86_64-pc-linux-gnu"

%struct.resource_allocation_response_msg = type { ptr, i32, ptr, i32, i32, i32, ptr, ptr, i32, ptr, i32, i32, ptr, ptr, i32, ptr, i16, i16, i16, i16, i32, ptr, i64, ptr, ptr, ptr, ptr, i32, ptr, ptr }

@local_het_step = external global i8, align 1
@.str.52 = private unnamed_addr constant [24 x i8] c"SLURM_JOB_CPUS_PER_NODE\00", align 1
@.str.68 = private unnamed_addr constant [3 x i8] c"%s\00", align 1
@.str.81 = private unnamed_addr constant [32 x i8] c"unable to set %s in environment\00", align 1
@.str.82 = private unnamed_addr constant [18 x i8] c"SLURM_MEM_PER_CPU\00", align 1
@.str.83 = private unnamed_addr constant [4 x i8] c"%lu\00", align 1
@.str.84 = private unnamed_addr constant [19 x i8] c"SLURM_MEM_PER_NODE\00", align 1
@.str.85 = private unnamed_addr constant [17 x i8] c"%s_PACK_GROUP_%d\00", align 1

; Function Attrs: nounwind uwtable
define internal ptr @_build_key(ptr noundef %0, i32 noundef %1) #0 {
  %3 = alloca ptr, align 8
  %4 = alloca i32, align 4
  %5 = alloca ptr, align 8
  store ptr %0, ptr %3, align 8
  store i32 %1, ptr %4, align 4
  call void @llvm.lifetime.start.p0(i64 8, ptr %5) #10
  store ptr null, ptr %5, align 8
  %6 = load i8, ptr @local_het_step, align 1, !range !8, !noundef !9
  %7 = trunc i8 %6 to i1
  br i1 %7, label %11, label %8

8:                                                ; preds = %2
  %9 = load i32, ptr %4, align 4
  %10 = icmp eq i32 %9, -1
  br i1 %10, label %11, label %14

11:                                               ; preds = %8, %2
  %12 = load ptr, ptr %3, align 8
  %13 = call ptr @xstrdup(ptr noundef %12)
  store ptr %13, ptr %5, align 8
  br label %17

14:                                               ; preds = %8
  %15 = load ptr, ptr %3, align 8
  %16 = load i32, ptr %4, align 4
  call void (ptr, ptr, ...) @_xstrfmtcat(ptr noundef %5, ptr noundef @.str.85, ptr noundef %15, i32 noundef %16)
  br label %17

17:                                               ; preds = %14, %11
  %18 = load ptr, ptr %5, align 8
  call void @llvm.lifetime.end.p0(i64 8, ptr %5) #10
  ret ptr %18
}

; Function Attrs: nounwind uwtable
define internal void @_set_env_vars(ptr noundef %0, i32 noundef %1) #0 {
  %3 = alloca ptr, align 8
  %4 = alloca i32, align 4
  %5 = alloca ptr, align 8
  %6 = alloca ptr, align 8
  %7 = alloca ptr, align 8
  %8 = alloca i32, align 4
  %9 = alloca i64, align 8
  %10 = alloca i64, align 8
  store ptr %0, ptr %3, align 8
  store i32 %1, ptr %4, align 4
  call void @llvm.lifetime.start.p0(i64 8, ptr %5) #10
  call void @llvm.lifetime.start.p0(i64 8, ptr %6) #10
  call void @llvm.lifetime.start.p0(i64 8, ptr %7) #10
  call void @llvm.lifetime.start.p0(i64 4, ptr %8) #10
  %11 = load i32, ptr %4, align 4
  %12 = call ptr @_build_key(ptr noundef @.str.52, i32 noundef %11)
  store ptr %12, ptr %5, align 8
  %13 = load ptr, ptr %5, align 8
  %14 = call ptr @getenv(ptr noundef %13) #10
  %15 = icmp ne ptr %14, null
  br i1 %15, label %35, label %16

16:                                               ; preds = %2
  %17 = load ptr, ptr %3, align 8
  %18 = getelementptr inbounds nuw %struct.resource_allocation_response_msg, ptr %17, i32 0, i32 20
  %19 = load i32, ptr %18, align 8
  %20 = load ptr, ptr %3, align 8
  %21 = getelementptr inbounds nuw %struct.resource_allocation_response_msg, ptr %20, i32 0, i32 6
  %22 = load ptr, ptr %21, align 8
  %23 = load ptr, ptr %3, align 8
  %24 = getelementptr inbounds nuw %struct.resource_allocation_response_msg, ptr %23, i32 0, i32 7
  %25 = load ptr, ptr %24, align 8
  %26 = call ptr @uint32_compressed_to_str(i32 noundef %19, ptr noundef %22, ptr noundef %25)
  store ptr %26, ptr %7, align 8
  %27 = load ptr, ptr %5, align 8
  %28 = load ptr, ptr %7, align 8
  %29 = call i32 (ptr, ptr, ptr, ...) @setenvf(ptr noundef null, ptr noundef %27, ptr noundef @.str.68, ptr noundef %28)
  %30 = icmp slt i32 %29, 0
  br i1 %30, label %31, label %34

31:                                               ; preds = %16
  %32 = load ptr, ptr %5, align 8
  %33 = call i32 (ptr, ...) @error(ptr noundef @.str.81, ptr noundef %32)
  br label %34

34:                                               ; preds = %31, %16
  call void @slurm_xfree(ptr noundef %7)
  br label %35

35:                                               ; preds = %34, %2
  call void @slurm_xfree(ptr noundef %5)
  %36 = load ptr, ptr %3, align 8
  %37 = getelementptr inbounds nuw %struct.resource_allocation_response_msg, ptr %36, i32 0, i32 8
  %38 = load i32, ptr %37, align 8
  %39 = icmp ne i32 %38, 0
  br i1 %39, label %40, label %74

40:                                               ; preds = %35
  store i32 0, ptr %8, align 4
  br label %41

41:                                               ; preds = %70, %40
  %42 = load i32, ptr %8, align 4
  %43 = load ptr, ptr %3, align 8
  %44 = getelementptr inbounds nuw %struct.resource_allocation_response_msg, ptr %43, i32 0, i32 8
  %45 = load i32, ptr %44, align 8
  %46 = icmp ult i32 %42, %45
  br i1 %46, label %47, label %73

47:                                               ; preds = %41
  %48 = load ptr, ptr %3, align 8
  %49 = getelementptr inbounds nuw %struct.resource_allocation_response_msg, ptr %48, i32 0, i32 9
  %50 = load ptr, ptr %49, align 8
  %51 = load i32, ptr %8, align 4
  %52 = sext i32 %51 to i64
  %53 = getelementptr inbounds ptr, ptr %50, i64 %52
  %54 = load ptr, ptr %53, align 8
  %55 = call ptr @xstrdup(ptr noundef %54)
  store ptr %55, ptr %7, align 8
  %56 = load ptr, ptr %7, align 8
  store ptr %56, ptr %5, align 8
  %57 = load ptr, ptr %7, align 8
  %58 = call ptr @strchr(ptr noundef %57, i32 noundef 61) #14
  store ptr %58, ptr %6, align 8
  %59 = load ptr, ptr %6, align 8
  %60 = icmp ne ptr %59, null
  br i1 %60, label %61, label %69

61:                                               ; preds = %47
  %62 = load ptr, ptr %6, align 8
  %63 = getelementptr inbounds i8, ptr %62, i64 0
  store i8 0, ptr %63, align 1
  %64 = load ptr, ptr %6, align 8
  %65 = getelementptr inbounds nuw i8, ptr %64, i32 1
  store ptr %65, ptr %6, align 8
  %66 = load ptr, ptr %5, align 8
  %67 = load ptr, ptr %6, align 8
  %68 = call i32 @setenv(ptr noundef %66, ptr noundef %67, i32 noundef 0) #10
  br label %69

69:                                               ; preds = %61, %47
  call void @slurm_xfree(ptr noundef %7)
  br label %70

70:                                               ; preds = %69
  %71 = load i32, ptr %8, align 4
  %72 = add nsw i32 %71, 1
  store i32 %72, ptr %8, align 4
  br label %41, !llvm.loop !28

73:                                               ; preds = %41
  br label %74

74:                                               ; preds = %73, %35
  %75 = load ptr, ptr %3, align 8
  %76 = getelementptr inbounds nuw %struct.resource_allocation_response_msg, ptr %75, i32 0, i32 22
  %77 = load i64, ptr %76, align 8
  %78 = and i64 %77, -9223372036854775808
  %79 = icmp ne i64 %78, 0
  br i1 %79, label %80, label %99

80:                                               ; preds = %74
  call void @llvm.lifetime.start.p0(i64 8, ptr %9) #10
  %81 = load ptr, ptr %3, align 8
  %82 = getelementptr inbounds nuw %struct.resource_allocation_response_msg, ptr %81, i32 0, i32 22
  %83 = load i64, ptr %82, align 8
  %84 = and i64 %83, 9223372036854775807
  store i64 %84, ptr %9, align 8
  %85 = load i32, ptr %4, align 4
  %86 = call ptr @_build_key(ptr noundef @.str.82, i32 noundef %85)
  store ptr %86, ptr %5, align 8
  %87 = load ptr, ptr %5, align 8
  %88 = call ptr @getenv(ptr noundef %87) #10
  %89 = icmp ne ptr %88, null
  br i1 %89, label %98, label %90

90:                                               ; preds = %80
  %91 = load ptr, ptr %5, align 8
  %92 = load i64, ptr %9, align 8
  %93 = call i32 (ptr, ptr, ptr, ...) @setenvf(ptr noundef null, ptr noundef %91, ptr noundef @.str.83, i64 noundef %92)
  %94 = icmp slt i32 %93, 0
  br i1 %94, label %95, label %98

95:                                               ; preds = %90
  %96 = load ptr, ptr %5, align 8
  %97 = call i32 (ptr, ...) @error(ptr noundef @.str.81, ptr noundef %96)
  br label %98

98:                                               ; preds = %95, %90, %80
  call void @slurm_xfree(ptr noundef %5)
  call void @llvm.lifetime.end.p0(i64 8, ptr %9) #10
  br label %123

99:                                               ; preds = %74
  %100 = load ptr, ptr %3, align 8
  %101 = getelementptr inbounds nuw %struct.resource_allocation_response_msg, ptr %100, i32 0, i32 22
  %102 = load i64, ptr %101, align 8
  %103 = icmp ne i64 %102, 0
  br i1 %103, label %104, label %122

104:                                              ; preds = %99
  call void @llvm.lifetime.start.p0(i64 8, ptr %10) #10
  %105 = load ptr, ptr %3, align 8
  %106 = getelementptr inbounds nuw %struct.resource_allocation_response_msg, ptr %105, i32 0, i32 22
  %107 = load i64, ptr %106, align 8
  store i64 %107, ptr %10, align 8
  %108 = load i32, ptr %4, align 4
  %109 = call ptr @_build_key(ptr noundef @.str.84, i32 noundef %108)
  store ptr %109, ptr %5, align 8
  %110 = load ptr, ptr %5, align 8
  %111 = call ptr @getenv(ptr noundef %110) #10
  %112 = icmp ne ptr %111, null
  br i1 %112, label %121, label %113

113:                                              ; preds = %104
  %114 = load ptr, ptr %5, align 8
  %115 = load i64, ptr %10, align 8
  %116 = call i32 (ptr, ptr, ptr, ...) @setenvf(ptr noundef null, ptr noundef %114, ptr noundef @.str.83, i64 noundef %115)
  %117 = icmp slt i32 %116, 0
  br i1 %117, label %118, label %121

118:                                              ; preds = %113
  %119 = load ptr, ptr %5, align 8
  %120 = call i32 (ptr, ...) @error(ptr noundef @.str.81, ptr noundef %119)
  br label %121

121:                                              ; preds = %118, %113, %104
  call void @slurm_xfree(ptr noundef %5)
  call void @llvm.lifetime.end.p0(i64 8, ptr %10) #10
  br label %122

122:                                              ; preds = %121, %99
  br label %123

123:                                              ; preds = %122, %98
  call void @llvm.lifetime.end.p0(i64 4, ptr %8) #10
  call void @llvm.lifetime.end.p0(i64 8, ptr %7) #10
  call void @llvm.lifetime.end.p0(i64 8, ptr %6) #10
  call void @llvm.lifetime.end.p0(i64 8, ptr %5) #10
  ret void
}