; Function Attrs: nounwind uwtable
define internal fastcc void @_set_env_vars(ptr noundef nonnull readonly captures(none) %0, i32 noundef %1) unnamed_addr #0 {
  %3 = alloca ptr, align 8
  %4 = alloca ptr, align 8
  %5 = alloca ptr, align 8
  %6 = alloca ptr, align 8
  %7 = alloca ptr, align 8
  call void @llvm.lifetime.start.p0(i64 8, ptr nonnull %6) #15
  call void @llvm.lifetime.start.p0(i64 8, ptr nonnull %7) #15
  call void @llvm.lifetime.start.p0(i64 8, ptr nonnull %5) #15
  store ptr null, ptr %5, align 8
  %8 = load i8, ptr @local_het_step, align 1, !range !8, !noundef !9
  %9 = trunc nuw i8 %8 to i1
  %10 = icmp eq i32 %1, -1
  %or.cond.i = or i1 %10, %9
  br i1 %or.cond.i, label %11, label %13

11:                                               ; preds = %2
  %12 = tail call ptr @xstrdup(ptr noundef nonnull @.str.52) #15
  br label %_build_key.exit

13:                                               ; preds = %2
  call void (ptr, ptr, ...) @_xstrfmtcat(ptr noundef nonnull %5, ptr noundef nonnull @.str.85, ptr noundef nonnull @.str.52, i32 noundef %1) #15
  %.pre.i = load ptr, ptr %5, align 8
  br label %_build_key.exit

_build_key.exit:                                  ; preds = %11, %13
  %14 = phi ptr [ %.pre.i, %13 ], [ %12, %11 ]
  call void @llvm.lifetime.end.p0(i64 8, ptr nonnull %5) #15
  store ptr %14, ptr %6, align 8
  %15 = call ptr @getenv(ptr noundef %14) #15
  %.not = icmp eq ptr %15, null
  br i1 %.not, label %16, label %29

16:                                               ; preds = %_build_key.exit
  %17 = getelementptr inbounds nuw i8, ptr %0, i64 120
  %18 = load i32, ptr %17, align 8
  %19 = getelementptr inbounds nuw i8, ptr %0, i64 40
  %20 = load ptr, ptr %19, align 8
  %21 = getelementptr inbounds nuw i8, ptr %0, i64 48
  %22 = load ptr, ptr %21, align 8
  %23 = call ptr @uint32_compressed_to_str(i32 noundef %18, ptr noundef %20, ptr noundef %22) #15
  store ptr %23, ptr %7, align 8
  %24 = call i32 (ptr, ptr, ptr, ...) @setenvf(ptr noundef null, ptr noundef %14, ptr noundef nonnull @.str.68, ptr noundef %23) #15
  %25 = icmp slt i32 %24, 0
  br i1 %25, label %26, label %28

26:                                               ; preds = %16
  %27 = call i32 (ptr, ...) @error(ptr noundef nonnull @.str.81, ptr noundef %14) #15
  br label %28

28:                                               ; preds = %26, %16
  call void @slurm_xfree(ptr noundef nonnull %7) #15
  br label %29

29:                                               ; preds = %28, %_build_key.exit
  call void @slurm_xfree(ptr noundef nonnull %6) #15
  %30 = getelementptr inbounds nuw i8, ptr %0, i64 56
  %31 = load i32, ptr %30, align 8
  %.not23 = icmp eq i32 %31, 0
  br i1 %.not23, label %.loopexit, label %.lr.ph

.lr.ph:                                           ; preds = %29
  %32 = getelementptr inbounds nuw i8, ptr %0, i64 64
  br label %33

33:                                               ; preds = %.lr.ph, %43
  %indvars.iv = phi i64 [ 0, %.lr.ph ], [ %indvars.iv.next, %43 ]
  %34 = load ptr, ptr %32, align 8
  %35 = getelementptr inbounds nuw ptr, ptr %34, i64 %indvars.iv
  %36 = load ptr, ptr %35, align 8
  %37 = call ptr @xstrdup(ptr noundef %36) #15
  store ptr %37, ptr %7, align 8
  store ptr %37, ptr %6, align 8
  %38 = call ptr @strchr(ptr noundef nonnull dereferenceable(1) %37, i32 noundef 61) #19
  %.not28 = icmp eq ptr %38, null
  br i1 %.not28, label %43, label %39

39:                                               ; preds = %33
  store i8 0, ptr %38, align 1
  %40 = getelementptr inbounds nuw i8, ptr %38, i64 1
  %41 = load ptr, ptr %6, align 8
  %42 = call i32 @setenv(ptr noundef %41, ptr noundef nonnull %40, i32 noundef 0) #15
  br label %43

43:                                               ; preds = %39, %33
  call void @slurm_xfree(ptr noundef nonnull %7) #15
  %indvars.iv.next = add nuw nsw i64 %indvars.iv, 1
  %44 = load i32, ptr %30, align 8
  %45 = zext i32 %44 to i64
  %46 = icmp samesign ult i64 %indvars.iv.next, %45
  br i1 %46, label %33, label %.loopexit, !llvm.loop !34

.loopexit:                                        ; preds = %43, %29
  %47 = getelementptr inbounds nuw i8, ptr %0, i64 136
  %48 = load i64, ptr %47, align 8
  %.not24 = icmp sgt i64 %48, -1
  br i1 %.not24, label %61, label %49

49:                                               ; preds = %.loopexit
  call void @llvm.lifetime.start.p0(i64 8, ptr nonnull %4) #15
  store ptr null, ptr %4, align 8
  %50 = load i8, ptr @local_het_step, align 1, !range !8, !noundef !9
  %51 = trunc nuw i8 %50 to i1
  %or.cond.i29 = or i1 %10, %51
  br i1 %or.cond.i29, label %52, label %54

52:                                               ; preds = %49
  %53 = call ptr @xstrdup(ptr noundef nonnull @.str.82) #15
  br label %_build_key.exit31

54:                                               ; preds = %49
  call void (ptr, ptr, ...) @_xstrfmtcat(ptr noundef nonnull %4, ptr noundef nonnull @.str.85, ptr noundef nonnull @.str.82, i32 noundef %1) #15
  %.pre.i30 = load ptr, ptr %4, align 8
  br label %_build_key.exit31

_build_key.exit31:                                ; preds = %52, %54
  %55 = phi ptr [ %.pre.i30, %54 ], [ %53, %52 ]
  call void @llvm.lifetime.end.p0(i64 8, ptr nonnull %4) #15
  store ptr %55, ptr %6, align 8
  %56 = call ptr @getenv(ptr noundef %55) #15
  %.not27 = icmp eq ptr %56, null
  br i1 %.not27, label %57, label %.sink.split

57:                                               ; preds = %_build_key.exit31
  %58 = and i64 %48, 9223372036854775807
  %59 = call i32 (ptr, ptr, ptr, ...) @setenvf(ptr noundef null, ptr noundef %55, ptr noundef nonnull @.str.83, i64 noundef %58) #15
  %60 = icmp slt i32 %59, 0
  br i1 %60, label %.sink.split.sink.split, label %.sink.split

61:                                               ; preds = %.loopexit
  %.not25 = icmp eq i64 %48, 0
  br i1 %.not25, label %75, label %62

62:                                               ; preds = %61
  call void @llvm.lifetime.start.p0(i64 8, ptr nonnull %3) #15
  store ptr null, ptr %3, align 8
  %63 = load i8, ptr @local_het_step, align 1, !range !8, !noundef !9
  %64 = trunc nuw i8 %63 to i1
  %or.cond.i32 = or i1 %10, %64
  br i1 %or.cond.i32, label %65, label %67

65:                                               ; preds = %62
  %66 = call ptr @xstrdup(ptr noundef nonnull @.str.84) #15
  br label %_build_key.exit34

67:                                               ; preds = %62
  call void (ptr, ptr, ...) @_xstrfmtcat(ptr noundef nonnull %3, ptr noundef nonnull @.str.85, ptr noundef nonnull @.str.84, i32 noundef %1) #15
  %.pre.i33 = load ptr, ptr %3, align 8
  br label %_build_key.exit34

_build_key.exit34:                                ; preds = %65, %67
  %68 = phi ptr [ %.pre.i33, %67 ], [ %66, %65 ]
  call void @llvm.lifetime.end.p0(i64 8, ptr nonnull %3) #15
  store ptr %68, ptr %6, align 8
  %69 = call ptr @getenv(ptr noundef %68) #15
  %.not26 = icmp eq ptr %69, null
  br i1 %.not26, label %70, label %.sink.split

70:                                               ; preds = %_build_key.exit34
  %71 = call i32 (ptr, ptr, ptr, ...) @setenvf(ptr noundef null, ptr noundef %68, ptr noundef nonnull @.str.83, i64 noundef %48) #15
  %72 = icmp slt i32 %71, 0
  br i1 %72, label %.sink.split.sink.split, label %.sink.split

.sink.split.sink.split:                           ; preds = %70, %57
  %73 = load ptr, ptr %6, align 8
  %74 = call i32 (ptr, ...) @error(ptr noundef nonnull @.str.81, ptr noundef %73) #15
  br label %.sink.split

.sink.split:                                      ; preds = %.sink.split.sink.split, %_build_key.exit34, %70, %_build_key.exit31, %57
  call void @slurm_xfree(ptr noundef nonnull %6) #15
  br label %75

75:                                               ; preds = %.sink.split, %61
  call void @llvm.lifetime.end.p0(i64 8, ptr nonnull %7) #15
  call void @llvm.lifetime.end.p0(i64 8, ptr nonnull %6) #15
  ret void
}